(dp0
S'index'
p1
(lp2
(lp3
(lp4
F0.09300366486388699
aF0.043899083496617176
aF0.0990239533139765
aa(lp5
F0.9988799635435753
aF0.0008919830556387702
aF0.016878444380438964
aF0.04419435385555814
aaa(lp6
(lp7
F0.07261440266175355
aF-0.052820410888376745
aF0.19834682997692443
aa(lp8
F0.8322280060009801
aF-0.024723378742651996
aF0.5527712682161748
aF-0.0350603138300413
aaa(lp9
(lp10
F0.09057910441413025
aF0.04420710147537069
aF0.09704906528222669
aa(lp11
F-0.1776374506302601
aF0.1807812546623253
aF-0.19804809468819168
aF-0.9468579757739143
aaa(lp12
(lp13
F0.06792675700535697
aF-0.0006863785543839428
aF0.20787731942136084
aa(lp14
F0.7901002804774282
aF-0.003814916059801321
aF0.6129538034560329
aF0.003824661256769897
aaasS'ring'
p15
(lp16
(lp17
(lp18
F0.06954543209389911
aF0.053660867823116146
aF0.21038848954878003
aa(lp19
F0.7304416660585185
aF0.02949087870748709
aF0.68154161400772
aF0.0329588976525037
aaa(lp20
(lp21
F0.09481242174540905
aF0.0030415006186343546
aF0.08554587548767256
aa(lp22
F0.9724420017703553
aF0.2208033608375159
aF0.053880340762741674
aF-0.051955152920694456
aaa(lp23
(lp24
F0.09414072866361994
aF0.005026625861779457
aF0.08419034561947045
aa(lp25
F-0.3191122479215968
aF0.2422693470799917
aF-0.0559182344388334
aF-0.9145195939667468
aaa(lp26
(lp27
F0.07226824948700618
aF-0.0007293607341892596
aF0.21414921429330463
aa(lp28
F0.6864784424706534
aF-0.0034246513303135516
aF0.7271288069595305
aF0.004395210568463723
aaasS'relax'
p29
(lp30
(lp31
(lp32
F0.06954543209389911
aF0.053660867823116146
aF0.21038848954878003
aa(lp33
F0.7304416660585185
aF0.02949087870748709
aF0.68154161400772
aF0.0329588976525037
aaa(lp34
(lp35
F0.07598697938894726
aF-0.04234615983772383
aF0.20445618871942695
aa(lp36
F0.7622747913151349
aF0.026363996080498334
aF0.6420007713128768
aF-0.07795570453665707
aaa(lp37
(lp38
F0.08695126902009306
aF0.128668322984535
aF0.043301150931619174
aa(lp39
F-0.2878509549329711
aF-0.3373615715110956
aF-0.4958718406306697
aF-0.7466191234366368
aaa(lp40
(lp41
F0.07226824948700618
aF-0.0007293607341892596
aF0.21414921429330463
aa(lp42
F0.6864784424706534
aF-0.0034246513303135516
aF0.7271288069595305
aF0.004395210568463723
aaasS'middle'
p43
(lp44
(lp45
(lp46
F0.06954543209389911
aF0.053660867823116146
aF0.21038848954878003
aa(lp47
F0.7304416660585185
aF0.02949087870748709
aF0.68154161400772
aF0.0329588976525037
aaa(lp48
(lp49
F0.07255929129879135
aF-0.049856272366081054
aF0.1986061584945973
aa(lp50
F0.8315707264446857
aF-0.007666810724294343
aF0.5534258176374443
aF-0.0463811524856945
aaa(lp51
(lp52
F0.09952189518633997
aF0.016280060639742265
aF0.0998482541704076
aa(lp53
F-0.1962792237690787
aF0.09795474285890732
aF-0.11841331603955081
aF-0.9684304937643025
aaa(lp54
(lp55
F0.09443111265712735
aF0.012739507739656042
aF0.09929475579728449
aa(lp56
F0.9959309553137281
aF0.06747633831241932
aF0.059639335722482416
aF-0.0034096408041935596
aaas.